target datalayout = "e-m:e-p270:32:32-p271:32:32-p272:64:64-i64:64-i128:128-f80:128-n8:16:32:64-S128"
target triple = "x86_64-pc-linux-gnu"

@__const.proto_register_zbee_zcl_appl_ctrl.ett = private unnamed_addr constant <{ ptr, ptr, ptr, [32 x ptr] }> <{ ptr @ett_zbee_zcl_appl_ctrl, ptr @ett_zbee_zcl_appl_ctrl_flags, ptr @ett_zbee_zcl_appl_ctrl_time, [32 x ptr] zeroinitializer }>, align 16
@ett_zbee_zcl_appl_ctrl_func = internal global [32 x i32] zeroinitializer, align 16
@.str.697 = private unnamed_addr constant [29 x i8] c"ZigBee ZCL Appliance Control\00", align 1
@.str.698 = private unnamed_addr constant [22 x i8] c"ZCL Appliance Control\00", align 1
@.str.699 = private unnamed_addr constant [26 x i8] c"zbee_zcl_general.applctrl\00", align 1
@proto_zbee_zcl_appl_ctrl = internal global i32 0, align 4

; Function Attrs: null_pointer_is_valid sspstrong uwtable
define hidden void @proto_register_zbee_zcl_appl_ctrl() #0 {
  %1 = alloca i32, align 4
  %2 = alloca i32, align 4
  %3 = alloca [35 x ptr], align 16
  call void @llvm.lifetime.start.p0(i64 4, ptr %1) #7
  call void @llvm.lifetime.start.p0(i64 4, ptr %2) #7
  call void @llvm.lifetime.start.p0(i64 280, ptr %3) #7
  call void @llvm.memcpy.p0.p0.i64(ptr align 16 %3, ptr align 16 @__const.proto_register_zbee_zcl_appl_ctrl.ett, i64 280, i1 false)
  store i32 0, ptr %1, align 4
  store i32 3, ptr %2, align 4
  br label %4

4:                                                ; preds = %14, %0
  %5 = load i32, ptr %1, align 4
  %6 = icmp ult i32 %5, 32
  br i1 %6, label %7, label %19

7:                                                ; preds = %4
  %8 = load i32, ptr %1, align 4
  %9 = zext i32 %8 to i64
  %10 = getelementptr [32 x i32], ptr @ett_zbee_zcl_appl_ctrl_func, i64 0, i64 %9
  %11 = load i32, ptr %2, align 4
  %12 = zext i32 %11 to i64
  %13 = getelementptr [35 x ptr], ptr %3, i64 0, i64 %12
  store ptr %10, ptr %13, align 8
  br label %14

14:                                               ; preds = %7
  %15 = load i32, ptr %1, align 4
  %16 = add i32 %15, 1
  store i32 %16, ptr %1, align 4
  %17 = load i32, ptr %2, align 4
  %18 = add i32 %17, 1
  store i32 %18, ptr %2, align 4
  br label %4, !llvm.loop !19

19:                                               ; preds = %4
  %20 = call i32 @proto_register_protocol(ptr noundef @.str.697, ptr noundef @.str.698, ptr noundef @.str.699)
  store i32 %20, ptr @proto_zbee_zcl_appl_ctrl, align 4
  %21 = load i32, ptr @proto_zbee_zcl_appl_ctrl, align 4
  call void @proto_register_field_array(i32 noundef %21, ptr noundef @proto_register_zbee_zcl_appl_ctrl.hf, i32 noundef 16)
  %22 = getelementptr inbounds [35 x ptr], ptr %3, i64 0, i64 0
  call void @proto_register_subtree_array(ptr noundef %22, i32 noundef 35)
  %23 = load i32, ptr @proto_zbee_zcl_appl_ctrl, align 4
  %24 = call ptr @register_dissector(ptr noundef @.str.699, ptr noundef @dissect_zbee_zcl_appl_ctrl, i32 noundef %23)
  call void @llvm.lifetime.end.p0(i64 280, ptr %3) #7
  call void @llvm.lifetime.end.p0(i64 4, ptr %2) #7
  call void @llvm.lifetime.end.p0(i64 4, ptr %1) #7
  ret void
}