; Function Attrs: null_pointer_is_valid sspstrong uwtable
define hidden void @proto_register_zbee_zcl_appl_ctrl() local_unnamed_addr #0 {
  %1 = alloca [35 x ptr], align 16
  call void @llvm.lifetime.start.p0(i64 280, ptr nonnull %1) #8
  call void @llvm.memcpy.p0.p0.i64(ptr noundef nonnull align 16 dereferenceable(280) %1, ptr noundef nonnull align 16 dereferenceable(280) @__const.proto_register_zbee_zcl_appl_ctrl.ett, i64 280, i1 false)
  br label %2

2:                                                ; preds = %0, %2
  %indvars.iv8 = phi i64 [ 0, %0 ], [ %indvars.iv.next9, %2 ]
  %indvars.iv = phi i64 [ 3, %0 ], [ %indvars.iv.next, %2 ]
  %3 = getelementptr [32 x i32], ptr @ett_zbee_zcl_appl_ctrl_func, i64 0, i64 %indvars.iv8
  %4 = getelementptr [35 x ptr], ptr %1, i64 0, i64 %indvars.iv
  store ptr %3, ptr %4, align 8
  %indvars.iv.next9 = add nuw nsw i64 %indvars.iv8, 1
  %indvars.iv.next = add nuw nsw i64 %indvars.iv, 1
  %exitcond.not = icmp eq i64 %indvars.iv.next9, 32
  br i1 %exitcond.not, label %5, label %2, !llvm.loop !26

5:                                                ; preds = %2
  %6 = tail call i32 @proto_register_protocol(ptr noundef nonnull @.str.697, ptr noundef nonnull @.str.698, ptr noundef nonnull @.str.699)
  store i32 %6, ptr @proto_zbee_zcl_appl_ctrl, align 4
  tail call void @proto_register_field_array(i32 noundef %6, ptr noundef nonnull @proto_register_zbee_zcl_appl_ctrl.hf, i32 noundef 16)
  call void @proto_register_subtree_array(ptr noundef nonnull %1, i32 noundef 35)
  %7 = load i32, ptr @proto_zbee_zcl_appl_ctrl, align 4
  %8 = call ptr @register_dissector(ptr noundef nonnull @.str.699, ptr noundef nonnull @dissect_zbee_zcl_appl_ctrl, i32 noundef %7)
  call void @llvm.lifetime.end.p0(i64 280, ptr nonnull %1) #8
  ret void
}